target datalayout = "e-m:e-p270:32:32-p271:32:32-p272:64:64-i64:64-i128:128-f80:128-n8:16:32:64-S128"
target triple = "x86_64-pc-linux-gnu"

%struct.PaUtilBufferProcessor = type { i64, i64, i32, i32, i32, i32, i64, i32, i32, i32, i32, ptr, ptr, i32, i32, i32, i32, ptr, ptr, i64, i64, ptr, ptr, i64, ptr, ptr, i64, ptr, i64, i32, [2 x i64], [2 x ptr], i32, [2 x i64], [2 x ptr], %struct.PaUtilTriangularDitherGenerator, double, ptr, ptr }
%struct.PaUtilTriangularDitherGenerator = type { i32, i32, i32 }
%struct.PaUtilChannelDescriptor = type { ptr, i32 }

; Function Attrs: nounwind uwtable
define void @PaUtil_Set2ndOutputChannel(ptr noundef %0, i32 noundef %1, ptr noundef %2, i32 noundef %3) #0 {
  %5 = alloca ptr, align 8
  %6 = alloca i32, align 4
  %7 = alloca ptr, align 8
  %8 = alloca i32, align 4
  store ptr %0, ptr %5, align 8
  store i32 %1, ptr %6, align 4
  store ptr %2, ptr %7, align 8
  store i32 %3, ptr %8, align 4
  %9 = load ptr, ptr %7, align 8
  %10 = load ptr, ptr %5, align 8
  %11 = getelementptr inbounds nuw %struct.PaUtilBufferProcessor, ptr %10, i32 0, i32 34
  %12 = getelementptr inbounds [2 x ptr], ptr %11, i64 0, i64 1
  %13 = load ptr, ptr %12, align 8
  %14 = load i32, ptr %6, align 4
  %15 = zext i32 %14 to i64
  %16 = getelementptr inbounds %struct.PaUtilChannelDescriptor, ptr %13, i64 %15
  %17 = getelementptr inbounds nuw %struct.PaUtilChannelDescriptor, ptr %16, i32 0, i32 0
  store ptr %9, ptr %17, align 8
  %18 = load i32, ptr %8, align 4
  %19 = load ptr, ptr %5, align 8
  %20 = getelementptr inbounds nuw %struct.PaUtilBufferProcessor, ptr %19, i32 0, i32 34
  %21 = getelementptr inbounds [2 x ptr], ptr %20, i64 0, i64 1
  %22 = load ptr, ptr %21, align 8
  %23 = load i32, ptr %6, align 4
  %24 = zext i32 %23 to i64
  %25 = getelementptr inbounds %struct.PaUtilChannelDescriptor, ptr %22, i64 %24
  %26 = getelementptr inbounds nuw %struct.PaUtilChannelDescriptor, ptr %25, i32 0, i32 1
  store i32 %18, ptr %26, align 8
  ret void
}

; Function Attrs: nounwind uwtable
define void @PaUtil_Set2ndInterleavedOutputChannels(ptr noundef %0, i32 noundef %1, ptr noundef %2, i32 noundef %3) #0 {
  %5 = alloca ptr, align 8
  %6 = alloca i32, align 4
  %7 = alloca ptr, align 8
  %8 = alloca i32, align 4
  %9 = alloca i32, align 4
  %10 = alloca i32, align 4
  %11 = alloca ptr, align 8
  store ptr %0, ptr %5, align 8
  store i32 %1, ptr %6, align 4
  store ptr %2, ptr %7, align 8
  store i32 %3, ptr %8, align 4
  %12 = load i32, ptr %6, align 4
  store i32 %12, ptr %10, align 4
  %13 = load ptr, ptr %7, align 8
  store ptr %13, ptr %11, align 8
  %14 = load i32, ptr %8, align 4
  %15 = icmp eq i32 %14, 0
  br i1 %15, label %16, label %20

16:                                               ; preds = %4
  %17 = load ptr, ptr %5, align 8
  %18 = getelementptr inbounds nuw %struct.PaUtilBufferProcessor, ptr %17, i32 0, i32 13
  %19 = load i32, ptr %18, align 8
  store i32 %19, ptr %8, align 4
  br label %20

20:                                               ; preds = %16, %4
  store i32 0, ptr %9, align 4
  br label %21

21:                                               ; preds = %38, %20
  %22 = load i32, ptr %9, align 4
  %23 = load i32, ptr %8, align 4
  %24 = icmp ult i32 %22, %23
  br i1 %24, label %25, label %41

25:                                               ; preds = %21
  %26 = load ptr, ptr %5, align 8
  %27 = load i32, ptr %10, align 4
  %28 = load i32, ptr %9, align 4
  %29 = add i32 %27, %28
  %30 = load ptr, ptr %11, align 8
  %31 = load i32, ptr %8, align 4
  call void @PaUtil_Set2ndOutputChannel(ptr noundef %26, i32 noundef %29, ptr noundef %30, i32 noundef %31)
  %32 = load ptr, ptr %5, align 8
  %33 = getelementptr inbounds nuw %struct.PaUtilBufferProcessor, ptr %32, i32 0, i32 14
  %34 = load i32, ptr %33, align 4
  %35 = load ptr, ptr %11, align 8
  %36 = zext i32 %34 to i64
  %37 = getelementptr inbounds i8, ptr %35, i64 %36
  store ptr %37, ptr %11, align 8
  br label %38

38:                                               ; preds = %25
  %39 = load i32, ptr %9, align 4
  %40 = add i32 %39, 1
  store i32 %40, ptr %9, align 4
  br label %21, !llvm.loop !9

41:                                               ; preds = %21
  ret void
}